target datalayout = "e-m:e-p270:32:32-p271:32:32-p272:64:64-i64:64-i128:128-f80:128-n8:16:32:64-S128"
target triple = "x86_64-pc-linux-gnu"

%struct.pmix_object_t = type { %union.pthread_mutex_t, ptr, i32, %struct.pmix_tma }
%union.pthread_mutex_t = type { %struct.__pthread_mutex_s }
%struct.__pthread_mutex_s = type { i32, i32, i32, i32, i32, i16, i16, %struct.__pthread_internal_list }
%struct.__pthread_internal_list = type { ptr, ptr }
%struct.pmix_tma = type { ptr, ptr, ptr, ptr, ptr, ptr, ptr, ptr }
%struct.pmix_bfrop_type_info_t = type { %struct.pmix_object_t, i16, ptr, ptr, ptr, ptr, ptr }
%struct.pmix_pointer_array_t = type { %struct.pmix_object_t, i32, i32, i32, i32, i32, ptr, ptr }

; Function Attrs: inlinehint nounwind uwtable
define internal ptr @pmix_pointer_array_get_item(ptr noundef %0, i32 noundef %1) #3 {
  %3 = alloca ptr, align 8
  %4 = alloca ptr, align 8
  %5 = alloca i32, align 4
  %6 = alloca ptr, align 8
  %7 = alloca i32, align 4
  store ptr %0, ptr %4, align 8, !tbaa !3
  store i32 %1, ptr %5, align 4, !tbaa !9
  call void @llvm.lifetime.start.p0(i64 8, ptr %6) #9
  %8 = load i32, ptr %5, align 4, !tbaa !9
  %9 = icmp sgt i32 0, %8
  br i1 %9, label %16, label %10

10:                                               ; preds = %2
  %11 = load ptr, ptr %4, align 8, !tbaa !3
  %12 = getelementptr inbounds nuw %struct.pmix_pointer_array_t, ptr %11, i32 0, i32 3
  %13 = load i32, ptr %12, align 8, !tbaa !22
  %14 = load i32, ptr %5, align 4, !tbaa !9
  %15 = icmp sle i32 %13, %14
  br label %16

16:                                               ; preds = %10, %2
  %17 = phi i1 [ true, %2 ], [ %15, %10 ]
  %18 = xor i1 %17, true
  %19 = xor i1 %18, true
  %20 = zext i1 %19 to i32
  %21 = sext i32 %20 to i64
  %22 = call i64 @llvm.expect.i64(i64 %21, i64 0)
  %23 = icmp ne i64 %22, 0
  br i1 %23, label %24, label %25

24:                                               ; preds = %16
  store ptr null, ptr %3, align 8
  store i32 1, ptr %7, align 4
  br label %34

25:                                               ; preds = %16
  %26 = load ptr, ptr %4, align 8, !tbaa !3
  %27 = getelementptr inbounds nuw %struct.pmix_pointer_array_t, ptr %26, i32 0, i32 7
  %28 = load ptr, ptr %27, align 8, !tbaa !25
  %29 = load i32, ptr %5, align 4, !tbaa !9
  %30 = sext i32 %29 to i64
  %31 = getelementptr inbounds ptr, ptr %28, i64 %30
  %32 = load ptr, ptr %31, align 8, !tbaa !8
  store ptr %32, ptr %6, align 8, !tbaa !8
  %33 = load ptr, ptr %6, align 8, !tbaa !8
  store ptr %33, ptr %3, align 8
  store i32 1, ptr %7, align 4
  br label %34

34:                                               ; preds = %25, %24
  call void @llvm.lifetime.end.p0(i64 8, ptr %6) #9
  %35 = load ptr, ptr %3, align 8
  ret ptr %35
}

; Function Attrs: nounwind uwtable
define i32 @pmix_bfrops_base_pack_rank(ptr noundef %0, ptr noundef %1, ptr noundef %2, i32 noundef %3, i16 noundef zeroext %4) #0 {
  %6 = alloca ptr, align 8
  %7 = alloca ptr, align 8
  %8 = alloca ptr, align 8
  %9 = alloca i32, align 4
  %10 = alloca i16, align 2
  %11 = alloca i32, align 4
  %12 = alloca ptr, align 8
  store ptr %0, ptr %6, align 8, !tbaa !3
  store ptr %1, ptr %7, align 8, !tbaa !8
  store ptr %2, ptr %8, align 8, !tbaa !8
  store i32 %3, ptr %9, align 4, !tbaa !9
  store i16 %4, ptr %10, align 2, !tbaa !11
  call void @llvm.lifetime.start.p0(i64 4, ptr %11) #9
  br label %13

13:                                               ; preds = %5
  call void @llvm.lifetime.start.p0(i64 8, ptr %12) #9
  %14 = load ptr, ptr %6, align 8, !tbaa !3
  %15 = call ptr @pmix_pointer_array_get_item(ptr noundef %14, i32 noundef 14)
  store ptr %15, ptr %12, align 8, !tbaa !8
  %16 = load ptr, ptr %12, align 8, !tbaa !8
  %17 = icmp eq ptr null, %16
  br i1 %17, label %18, label %19

18:                                               ; preds = %13
  store i32 -16, ptr %11, align 4, !tbaa !9
  br label %28

19:                                               ; preds = %13
  %20 = load ptr, ptr %12, align 8, !tbaa !8
  %21 = getelementptr inbounds nuw %struct.pmix_bfrop_type_info_t, ptr %20, i32 0, i32 3
  %22 = load ptr, ptr %21, align 8, !tbaa !20
  %23 = load ptr, ptr %6, align 8, !tbaa !3
  %24 = load ptr, ptr %7, align 8, !tbaa !8
  %25 = load ptr, ptr %8, align 8, !tbaa !8
  %26 = load i32, ptr %9, align 4, !tbaa !9
  %27 = call i32 %22(ptr noundef %23, ptr noundef %24, ptr noundef %25, i32 noundef %26, i16 noundef zeroext 14)
  store i32 %27, ptr %11, align 4, !tbaa !9
  br label %28

28:                                               ; preds = %19, %18
  call void @llvm.lifetime.end.p0(i64 8, ptr %12) #9
  br label %29

29:                                               ; preds = %28
  br label %30

30:                                               ; preds = %29
  %31 = load i32, ptr %11, align 4, !tbaa !9
  call void @llvm.lifetime.end.p0(i64 4, ptr %11) #9
  ret i32 %31
}